; Function Attrs: nounwind uwtable
define range(i32 -101, 1) i32 @CVSpilsSetGSTypeB(ptr noundef %0, i32 noundef %1, i32 noundef %2) local_unnamed_addr #0 {
  %4 = icmp eq ptr %0, null
  br i1 %4, label %5, label %6

5:                                                ; preds = %3
  tail call void (ptr, i32, ptr, ptr, ptr, ...) @cvProcessError(ptr noundef null, i32 noundef -1, ptr noundef nonnull @.str, ptr noundef nonnull @.str.33, ptr noundef nonnull @.str.2) #5
  br label %CVSpilsSetGSType.exit

6:                                                ; preds = %3
  %7 = getelementptr inbounds nuw i8, ptr %0, i64 2200
  %8 = load i32, ptr %7, align 8, !tbaa !51
  %9 = icmp eq i32 %8, 0
  br i1 %9, label %10, label %11

10:                                               ; preds = %6
  tail call void (ptr, i32, ptr, ptr, ptr, ...) @cvProcessError(ptr noundef nonnull %0, i32 noundef -101, ptr noundef nonnull @.str, ptr noundef nonnull @.str.33, ptr noundef nonnull @.str.31) #5
  br label %CVSpilsSetGSType.exit

11:                                               ; preds = %6
  %12 = getelementptr inbounds nuw i8, ptr %0, i64 2192
  %13 = load ptr, ptr %12, align 8, !tbaa !52
  %14 = getelementptr inbounds nuw i8, ptr %13, i64 40
  %15 = load i32, ptr %14, align 8, !tbaa !53
  %.not = icmp slt i32 %1, %15
  br i1 %.not, label %17, label %16

16:                                               ; preds = %11
  tail call void (ptr, i32, ptr, ptr, ptr, ...) @cvProcessError(ptr noundef nonnull %0, i32 noundef -3, ptr noundef nonnull @.str, ptr noundef nonnull @.str.33, ptr noundef nonnull @.str.32) #5
  br label %CVSpilsSetGSType.exit

17:                                               ; preds = %11
  %18 = getelementptr inbounds nuw i8, ptr %13, i64 32
  br label %.lr.ph

.lr.ph:                                           ; preds = %.lr.ph, %17
  %.017.sink.in = phi ptr [ %21, %.lr.ph ], [ %18, %17 ]
  %.017.sink = load ptr, ptr %.017.sink.in, align 8, !tbaa !58, !nonnull !59, !noundef !59
  %19 = load i32, ptr %.017.sink, align 8, !tbaa !60
  %20 = icmp eq i32 %1, %19
  %21 = getelementptr inbounds nuw i8, ptr %.017.sink, i64 120
  br i1 %20, label %._crit_edge, label %.lr.ph

._crit_edge:                                      ; preds = %.lr.ph
  %22 = getelementptr inbounds nuw i8, ptr %.017.sink, i64 16
  %23 = load ptr, ptr %22, align 8, !tbaa !63
  %24 = icmp eq ptr %23, null
  br i1 %24, label %25, label %26

25:                                               ; preds = %._crit_edge
  tail call void (ptr, i32, ptr, ptr, ptr, ...) @cvProcessError(ptr noundef null, i32 noundef -1, ptr noundef nonnull @.str, ptr noundef nonnull @.str.5, ptr noundef nonnull @.str.2) #5
  br label %CVSpilsSetGSType.exit

26:                                               ; preds = %._crit_edge
  %27 = getelementptr inbounds nuw i8, ptr %23, i64 1696
  %28 = load ptr, ptr %27, align 8, !tbaa !3
  %29 = icmp eq ptr %28, null
  br i1 %29, label %30, label %31

30:                                               ; preds = %26
  tail call void (ptr, i32, ptr, ptr, ptr, ...) @cvProcessError(ptr noundef nonnull %23, i32 noundef -2, ptr noundef nonnull @.str, ptr noundef nonnull @.str.5, ptr noundef nonnull @.str.3) #5
  br label %CVSpilsSetGSType.exit

31:                                               ; preds = %26
  %32 = load i32, ptr %28, align 8, !tbaa !20
  %.not.i = icmp eq i32 %32, 1
  br i1 %.not.i, label %34, label %33

33:                                               ; preds = %31
  tail call void (ptr, i32, ptr, ptr, ptr, ...) @cvProcessError(ptr noundef nonnull %23, i32 noundef -3, ptr noundef nonnull @.str, ptr noundef nonnull @.str.5, ptr noundef nonnull @.str.6) #5
  br label %CVSpilsSetGSType.exit

34:                                               ; preds = %31
  %35 = add i32 %2, -3
  %or.cond.i = icmp ult i32 %35, -2
  br i1 %or.cond.i, label %36, label %37

36:                                               ; preds = %34
  tail call void (ptr, i32, ptr, ptr, ptr, ...) @cvProcessError(ptr noundef nonnull %23, i32 noundef -3, ptr noundef nonnull @.str, ptr noundef nonnull @.str.5, ptr noundef nonnull @.str.7) #5
  br label %CVSpilsSetGSType.exit

37:                                               ; preds = %34
  %38 = getelementptr inbounds nuw i8, ptr %28, i64 8
  store i32 %2, ptr %38, align 8, !tbaa !21
  br label %CVSpilsSetGSType.exit

CVSpilsSetGSType.exit:                            ; preds = %37, %36, %33, %30, %25, %16, %10, %5
  %.0 = phi i32 [ -1, %5 ], [ -101, %10 ], [ -3, %16 ], [ -1, %25 ], [ -2, %30 ], [ -3, %33 ], [ -3, %36 ], [ 0, %37 ]
  ret i32 %.0
}